target datalayout = "e-m:e-p270:32:32-p271:32:32-p272:64:64-i64:64-i128:128-f80:128-n8:16:32:64-S128"
target triple = "x86_64-pc-linux-gnu"

%"class.std::__cxx11::basic_string" = type { %"struct.std::__cxx11::basic_string<char>::_Alloc_hider", i64, %union.anon }
%"struct.std::__cxx11::basic_string<char>::_Alloc_hider" = type { ptr }
%union.anon = type { i64, [8 x i8] }
%"class.std::allocator" = type { i8 }
%"class.cv::Mat" = type { i32, i32, i32, i32, ptr, ptr, ptr, ptr, ptr, ptr, %"struct.cv::MatSize", %"struct.cv::MatStep" }
%"struct.cv::MatSize" = type { ptr }
%"struct.cv::MatStep" = type { ptr, [2 x i64] }

@.str.1 = private unnamed_addr constant [135 x i8] c"generated/home/dtcxzyw/WorkSpace/Projects/compilers/llvm-opt-benchmark/bench/opencv/opencv/modules/calib3d/src/calibration_handeye.cpp\00", align 1
@.str.24 = private unnamed_addr constant [45 x i8] c"s.type() == CV_64FC1 && t.type() == CV_64FC1\00", align 1
@__func__._ZN2cvL5qmultERKNS_3MatES2_ = private unnamed_addr constant [6 x i8] c"qmult\00", align 1
@.str.25 = private unnamed_addr constant [27 x i8] c"s.rows == 4 && s.cols == 1\00", align 1
@.str.26 = private unnamed_addr constant [27 x i8] c"t.rows == 4 && t.cols == 1\00", align 1

; Function Attrs: mustprogress nounwind uwtable
define linkonce_odr hidden noundef nonnull align 8 dereferenceable(8) ptr @_ZN2cv3Mat2atIdEERT_ii(ptr noundef nonnull align 8 dereferenceable(96) %0, i32 noundef %1, i32 noundef %2) #6 comdat align 2 {
  %4 = alloca ptr, align 8
  %5 = alloca i32, align 4
  %6 = alloca i32, align 4
  store ptr %0, ptr %4, align 8
  store i32 %1, ptr %5, align 4
  store i32 %2, ptr %6, align 4
  %7 = load ptr, ptr %4, align 8
  %8 = getelementptr inbounds %"class.cv::Mat", ptr %7, i32 0, i32 4
  %9 = load ptr, ptr %8, align 8
  %10 = getelementptr inbounds %"class.cv::Mat", ptr %7, i32 0, i32 11
  %11 = getelementptr inbounds %"struct.cv::MatStep", ptr %10, i32 0, i32 0
  %12 = load ptr, ptr %11, align 8
  %13 = getelementptr inbounds i64, ptr %12, i64 0
  %14 = load i64, ptr %13, align 8
  %15 = load i32, ptr %5, align 4
  %16 = sext i32 %15 to i64
  %17 = mul i64 %14, %16
  %18 = getelementptr inbounds i8, ptr %9, i64 %17
  %19 = load i32, ptr %6, align 4
  %20 = sext i32 %19 to i64
  %21 = getelementptr inbounds double, ptr %18, i64 %20
  ret ptr %21
}

; Function Attrs: mustprogress nounwind uwtable
define linkonce_odr hidden noundef nonnull align 8 dereferenceable(8) ptr @_ZNK2cv3Mat2atIdEERKT_ii(ptr noundef nonnull align 8 dereferenceable(96) %0, i32 noundef %1, i32 noundef %2) #6 comdat align 2 {
  %4 = alloca ptr, align 8
  %5 = alloca i32, align 4
  %6 = alloca i32, align 4
  store ptr %0, ptr %4, align 8
  store i32 %1, ptr %5, align 4
  store i32 %2, ptr %6, align 4
  %7 = load ptr, ptr %4, align 8
  %8 = getelementptr inbounds %"class.cv::Mat", ptr %7, i32 0, i32 4
  %9 = load ptr, ptr %8, align 8
  %10 = getelementptr inbounds %"class.cv::Mat", ptr %7, i32 0, i32 11
  %11 = getelementptr inbounds %"struct.cv::MatStep", ptr %10, i32 0, i32 0
  %12 = load ptr, ptr %11, align 8
  %13 = getelementptr inbounds i64, ptr %12, i64 0
  %14 = load i64, ptr %13, align 8
  %15 = load i32, ptr %5, align 4
  %16 = sext i32 %15 to i64
  %17 = mul i64 %14, %16
  %18 = getelementptr inbounds i8, ptr %9, i64 %17
  %19 = load i32, ptr %6, align 4
  %20 = sext i32 %19 to i64
  %21 = getelementptr inbounds double, ptr %18, i64 %20
  ret ptr %21
}

; Function Attrs: mustprogress nounwind uwtable
define linkonce_odr hidden noundef i32 @_ZNK2cv3Mat4typeEv(ptr noundef nonnull align 8 dereferenceable(96) %0) #6 comdat align 2 {
  %2 = alloca ptr, align 8
  store ptr %0, ptr %2, align 8
  %3 = load ptr, ptr %2, align 8
  %4 = getelementptr inbounds %"class.cv::Mat", ptr %3, i32 0, i32 0
  %5 = load i32, ptr %4, align 8
  %6 = and i32 %5, 4095
  ret i32 %6
}

; Function Attrs: mustprogress uwtable
define internal void @_ZN2cvL5qmultERKNS_3MatES2_(ptr dead_on_unwind noalias writable sret(%"class.cv::Mat") align 8 %0, ptr noundef nonnull align 8 dereferenceable(96) %1, ptr noundef nonnull align 8 dereferenceable(96) %2) #4 personality ptr @__gxx_personality_v0 {
  %4 = alloca ptr, align 8
  %5 = alloca ptr, align 8
  %6 = alloca ptr, align 8
  %7 = alloca %"class.std::__cxx11::basic_string", align 8
  %8 = alloca %"class.std::allocator", align 1
  %9 = alloca ptr, align 8
  %10 = alloca i32, align 4
  %11 = alloca %"class.std::__cxx11::basic_string", align 8
  %12 = alloca %"class.std::allocator", align 1
  %13 = alloca %"class.std::__cxx11::basic_string", align 8
  %14 = alloca %"class.std::allocator", align 1
  %15 = alloca double, align 8
  %16 = alloca double, align 8
  %17 = alloca double, align 8
  %18 = alloca double, align 8
  %19 = alloca double, align 8
  %20 = alloca double, align 8
  %21 = alloca double, align 8
  %22 = alloca double, align 8
  %23 = alloca i1, align 1
  store ptr %0, ptr %4, align 8
  store ptr %1, ptr %5, align 8
  store ptr %2, ptr %6, align 8
  br label %24

24:                                               ; preds = %3
  %25 = load ptr, ptr %5, align 8
  %26 = call noundef i32 @_ZNK2cv3Mat4typeEv(ptr noundef nonnull align 8 dereferenceable(96) %25)
  %27 = icmp eq i32 %26, 6
  br i1 %27, label %28, label %33

28:                                               ; preds = %24
  %29 = load ptr, ptr %6, align 8
  %30 = call noundef i32 @_ZNK2cv3Mat4typeEv(ptr noundef nonnull align 8 dereferenceable(96) %29)
  %31 = icmp eq i32 %30, 6
  br i1 %31, label %32, label %33

32:                                               ; preds = %28
  br label %45

33:                                               ; preds = %28, %24
  call void @_ZNSaIcEC1Ev(ptr noundef nonnull align 1 dereferenceable(1) %8) #3
  invoke void @_ZNSt7__cxx1112basic_stringIcSt11char_traitsIcESaIcEEC1EPKcRKS3_(ptr noundef nonnull align 8 dereferenceable(32) %7, ptr noundef @.str.24, ptr noundef nonnull align 1 dereferenceable(1) %8)
          to label %34 unwind label %36

34:                                               ; preds = %33
  invoke void @_ZN2cv5errorEiRKNSt7__cxx1112basic_stringIcSt11char_traitsIcESaIcEEEPKcS9_i(i32 noundef -215, ptr noundef nonnull align 8 dereferenceable(32) %7, ptr noundef @__func__._ZN2cvL5qmultERKNS_3MatES2_, ptr noundef @.str.1, i32 noundef 198) #14
          to label %35 unwind label %40

35:                                               ; preds = %34
  unreachable

36:                                               ; preds = %33
  %37 = landingpad { ptr, i32 }
          cleanup
  %38 = extractvalue { ptr, i32 } %37, 0
  store ptr %38, ptr %9, align 8
  %39 = extractvalue { ptr, i32 } %37, 1
  store i32 %39, ptr %10, align 4
  br label %44

40:                                               ; preds = %34
  %41 = landingpad { ptr, i32 }
          cleanup
  %42 = extractvalue { ptr, i32 } %41, 0
  store ptr %42, ptr %9, align 8
  %43 = extractvalue { ptr, i32 } %41, 1
  store i32 %43, ptr %10, align 4
  call void @_ZNSt7__cxx1112basic_stringIcSt11char_traitsIcESaIcEED1Ev(ptr noundef nonnull align 8 dereferenceable(32) %7) #3
  br label %44

44:                                               ; preds = %40, %36
  call void @_ZNSaIcED1Ev(ptr noundef nonnull align 1 dereferenceable(1) %8) #3
  br label %182

45:                                               ; preds = %32
  br label %46

46:                                               ; preds = %45
  br label %47

47:                                               ; preds = %46
  %48 = load ptr, ptr %5, align 8
  %49 = getelementptr inbounds %"class.cv::Mat", ptr %48, i32 0, i32 2
  %50 = load i32, ptr %49, align 8
  %51 = icmp eq i32 %50, 4
  br i1 %51, label %52, label %58

52:                                               ; preds = %47
  %53 = load ptr, ptr %5, align 8
  %54 = getelementptr inbounds %"class.cv::Mat", ptr %53, i32 0, i32 3
  %55 = load i32, ptr %54, align 4
  %56 = icmp eq i32 %55, 1
  br i1 %56, label %57, label %58

57:                                               ; preds = %52
  br label %70

58:                                               ; preds = %52, %47
  call void @_ZNSaIcEC1Ev(ptr noundef nonnull align 1 dereferenceable(1) %12) #3
  invoke void @_ZNSt7__cxx1112basic_stringIcSt11char_traitsIcESaIcEEC1EPKcRKS3_(ptr noundef nonnull align 8 dereferenceable(32) %11, ptr noundef @.str.25, ptr noundef nonnull align 1 dereferenceable(1) %12)
          to label %59 unwind label %61

59:                                               ; preds = %58
  invoke void @_ZN2cv5errorEiRKNSt7__cxx1112basic_stringIcSt11char_traitsIcESaIcEEEPKcS9_i(i32 noundef -215, ptr noundef nonnull align 8 dereferenceable(32) %11, ptr noundef @__func__._ZN2cvL5qmultERKNS_3MatES2_, ptr noundef @.str.1, i32 noundef 199) #14
          to label %60 unwind label %65

60:                                               ; preds = %59
  unreachable

61:                                               ; preds = %58
  %62 = landingpad { ptr, i32 }
          cleanup
  %63 = extractvalue { ptr, i32 } %62, 0
  store ptr %63, ptr %9, align 8
  %64 = extractvalue { ptr, i32 } %62, 1
  store i32 %64, ptr %10, align 4
  br label %69

65:                                               ; preds = %59
  %66 = landingpad { ptr, i32 }
          cleanup
  %67 = extractvalue { ptr, i32 } %66, 0
  store ptr %67, ptr %9, align 8
  %68 = extractvalue { ptr, i32 } %66, 1
  store i32 %68, ptr %10, align 4
  call void @_ZNSt7__cxx1112basic_stringIcSt11char_traitsIcESaIcEED1Ev(ptr noundef nonnull align 8 dereferenceable(32) %11) #3
  br label %69

69:                                               ; preds = %65, %61
  call void @_ZNSaIcED1Ev(ptr noundef nonnull align 1 dereferenceable(1) %12) #3
  br label %182

70:                                               ; preds = %57
  br label %71

71:                                               ; preds = %70
  br label %72

72:                                               ; preds = %71
  %73 = load ptr, ptr %6, align 8
  %74 = getelementptr inbounds %"class.cv::Mat", ptr %73, i32 0, i32 2
  %75 = load i32, ptr %74, align 8
  %76 = icmp eq i32 %75, 4
  br i1 %76, label %77, label %83

77:                                               ; preds = %72
  %78 = load ptr, ptr %6, align 8
  %79 = getelementptr inbounds %"class.cv::Mat", ptr %78, i32 0, i32 3
  %80 = load i32, ptr %79, align 4
  %81 = icmp eq i32 %80, 1
  br i1 %81, label %82, label %83

82:                                               ; preds = %77
  br label %95

83:                                               ; preds = %77, %72
  call void @_ZNSaIcEC1Ev(ptr noundef nonnull align 1 dereferenceable(1) %14) #3
  invoke void @_ZNSt7__cxx1112basic_stringIcSt11char_traitsIcESaIcEEC1EPKcRKS3_(ptr noundef nonnull align 8 dereferenceable(32) %13, ptr noundef @.str.26, ptr noundef nonnull align 1 dereferenceable(1) %14)
          to label %84 unwind label %86

84:                                               ; preds = %83
  invoke void @_ZN2cv5errorEiRKNSt7__cxx1112basic_stringIcSt11char_traitsIcESaIcEEEPKcS9_i(i32 noundef -215, ptr noundef nonnull align 8 dereferenceable(32) %13, ptr noundef @__func__._ZN2cvL5qmultERKNS_3MatES2_, ptr noundef @.str.1, i32 noundef 200) #14
          to label %85 unwind label %90

85:                                               ; preds = %84
  unreachable

86:                                               ; preds = %83
  %87 = landingpad { ptr, i32 }
          cleanup
  %88 = extractvalue { ptr, i32 } %87, 0
  store ptr %88, ptr %9, align 8
  %89 = extractvalue { ptr, i32 } %87, 1
  store i32 %89, ptr %10, align 4
  br label %94

90:                                               ; preds = %84
  %91 = landingpad { ptr, i32 }
          cleanup
  %92 = extractvalue { ptr, i32 } %91, 0
  store ptr %92, ptr %9, align 8
  %93 = extractvalue { ptr, i32 } %91, 1
  store i32 %93, ptr %10, align 4
  call void @_ZNSt7__cxx1112basic_stringIcSt11char_traitsIcESaIcEED1Ev(ptr noundef nonnull align 8 dereferenceable(32) %13) #3
  br label %94

94:                                               ; preds = %90, %86
  call void @_ZNSaIcED1Ev(ptr noundef nonnull align 1 dereferenceable(1) %14) #3
  br label %182

95:                                               ; preds = %82
  br label %96

96:                                               ; preds = %95
  %97 = load ptr, ptr %5, align 8
  %98 = call noundef nonnull align 8 dereferenceable(8) ptr @_ZNK2cv3Mat2atIdEERKT_ii(ptr noundef nonnull align 8 dereferenceable(96) %97, i32 noundef 0, i32 noundef 0)
  %99 = load double, ptr %98, align 8
  store double %99, ptr %15, align 8
  %100 = load ptr, ptr %5, align 8
  %101 = call noundef nonnull align 8 dereferenceable(8) ptr @_ZNK2cv3Mat2atIdEERKT_ii(ptr noundef nonnull align 8 dereferenceable(96) %100, i32 noundef 1, i32 noundef 0)
  %102 = load double, ptr %101, align 8
  store double %102, ptr %16, align 8
  %103 = load ptr, ptr %5, align 8
  %104 = call noundef nonnull align 8 dereferenceable(8) ptr @_ZNK2cv3Mat2atIdEERKT_ii(ptr noundef nonnull align 8 dereferenceable(96) %103, i32 noundef 2, i32 noundef 0)
  %105 = load double, ptr %104, align 8
  store double %105, ptr %17, align 8
  %106 = load ptr, ptr %5, align 8
  %107 = call noundef nonnull align 8 dereferenceable(8) ptr @_ZNK2cv3Mat2atIdEERKT_ii(ptr noundef nonnull align 8 dereferenceable(96) %106, i32 noundef 3, i32 noundef 0)
  %108 = load double, ptr %107, align 8
  store double %108, ptr %18, align 8
  %109 = load ptr, ptr %6, align 8
  %110 = call noundef nonnull align 8 dereferenceable(8) ptr @_ZNK2cv3Mat2atIdEERKT_ii(ptr noundef nonnull align 8 dereferenceable(96) %109, i32 noundef 0, i32 noundef 0)
  %111 = load double, ptr %110, align 8
  store double %111, ptr %19, align 8
  %112 = load ptr, ptr %6, align 8
  %113 = call noundef nonnull align 8 dereferenceable(8) ptr @_ZNK2cv3Mat2atIdEERKT_ii(ptr noundef nonnull align 8 dereferenceable(96) %112, i32 noundef 1, i32 noundef 0)
  %114 = load double, ptr %113, align 8
  store double %114, ptr %20, align 8
  %115 = load ptr, ptr %6, align 8
  %116 = call noundef nonnull align 8 dereferenceable(8) ptr @_ZNK2cv3Mat2atIdEERKT_ii(ptr noundef nonnull align 8 dereferenceable(96) %115, i32 noundef 2, i32 noundef 0)
  %117 = load double, ptr %116, align 8
  store double %117, ptr %21, align 8
  %118 = load ptr, ptr %6, align 8
  %119 = call noundef nonnull align 8 dereferenceable(8) ptr @_ZNK2cv3Mat2atIdEERKT_ii(ptr noundef nonnull align 8 dereferenceable(96) %118, i32 noundef 3, i32 noundef 0)
  %120 = load double, ptr %119, align 8
  store double %120, ptr %22, align 8
  store i1 false, ptr %23, align 1
  call void @_ZN2cv3MatC1Eiii(ptr noundef nonnull align 8 dereferenceable(96) %0, i32 noundef 4, i32 noundef 1, i32 noundef 6)
  %121 = load double, ptr %15, align 8
  %122 = load double, ptr %19, align 8
  %123 = load double, ptr %16, align 8
  %124 = load double, ptr %20, align 8
  %125 = fmul double %123, %124
  %126 = fneg double %125
  %127 = call double @llvm.fmuladd.f64(double %121, double %122, double %126)
  %128 = load double, ptr %17, align 8
  %129 = load double, ptr %21, align 8
  %130 = fneg double %128
  %131 = call double @llvm.fmuladd.f64(double %130, double %129, double %127)
  %132 = load double, ptr %18, align 8
  %133 = load double, ptr %22, align 8
  %134 = fneg double %132
  %135 = call double @llvm.fmuladd.f64(double %134, double %133, double %131)
  %136 = call noundef nonnull align 8 dereferenceable(8) ptr @_ZN2cv3Mat2atIdEERT_ii(ptr noundef nonnull align 8 dereferenceable(96) %0, i32 noundef 0, i32 noundef 0)
  store double %135, ptr %136, align 8
  %137 = load double, ptr %15, align 8
  %138 = load double, ptr %20, align 8
  %139 = load double, ptr %16, align 8
  %140 = load double, ptr %19, align 8
  %141 = fmul double %139, %140
  %142 = call double @llvm.fmuladd.f64(double %137, double %138, double %141)
  %143 = load double, ptr %17, align 8
  %144 = load double, ptr %22, align 8
  %145 = call double @llvm.fmuladd.f64(double %143, double %144, double %142)
  %146 = load double, ptr %18, align 8
  %147 = load double, ptr %21, align 8
  %148 = fneg double %146
  %149 = call double @llvm.fmuladd.f64(double %148, double %147, double %145)
  %150 = call noundef nonnull align 8 dereferenceable(8) ptr @_ZN2cv3Mat2atIdEERT_ii(ptr noundef nonnull align 8 dereferenceable(96) %0, i32 noundef 1, i32 noundef 0)
  store double %149, ptr %150, align 8
  %151 = load double, ptr %15, align 8
  %152 = load double, ptr %21, align 8
  %153 = load double, ptr %16, align 8
  %154 = load double, ptr %22, align 8
  %155 = fmul double %153, %154
  %156 = fneg double %155
  %157 = call double @llvm.fmuladd.f64(double %151, double %152, double %156)
  %158 = load double, ptr %17, align 8
  %159 = load double, ptr %19, align 8
  %160 = call double @llvm.fmuladd.f64(double %158, double %159, double %157)
  %161 = load double, ptr %18, align 8
  %162 = load double, ptr %20, align 8
  %163 = call double @llvm.fmuladd.f64(double %161, double %162, double %160)
  %164 = call noundef nonnull align 8 dereferenceable(8) ptr @_ZN2cv3Mat2atIdEERT_ii(ptr noundef nonnull align 8 dereferenceable(96) %0, i32 noundef 2, i32 noundef 0)
  store double %163, ptr %164, align 8
  %165 = load double, ptr %15, align 8
  %166 = load double, ptr %22, align 8
  %167 = load double, ptr %16, align 8
  %168 = load double, ptr %21, align 8
  %169 = fmul double %167, %168
  %170 = call double @llvm.fmuladd.f64(double %165, double %166, double %169)
  %171 = load double, ptr %17, align 8
  %172 = load double, ptr %20, align 8
  %173 = fneg double %171
  %174 = call double @llvm.fmuladd.f64(double %173, double %172, double %170)
  %175 = load double, ptr %18, align 8
  %176 = load double, ptr %19, align 8
  %177 = call double @llvm.fmuladd.f64(double %175, double %176, double %174)
  %178 = call noundef nonnull align 8 dereferenceable(8) ptr @_ZN2cv3Mat2atIdEERT_ii(ptr noundef nonnull align 8 dereferenceable(96) %0, i32 noundef 3, i32 noundef 0)
  store double %177, ptr %178, align 8
  store i1 true, ptr %23, align 1
  %179 = load i1, ptr %23, align 1
  br i1 %179, label %181, label %180

180:                                              ; preds = %96
  call void @_ZN2cv3MatD1Ev(ptr noundef nonnull align 8 dereferenceable(96) %0) #3
  br label %181

181:                                              ; preds = %180, %96
  ret void

182:                                              ; preds = %94, %69, %44
  %183 = load ptr, ptr %9, align 8
  %184 = load i32, ptr %10, align 4
  %185 = insertvalue { ptr, i32 } poison, ptr %183, 0
  %186 = insertvalue { ptr, i32 } %185, i32 %184, 1
  resume { ptr, i32 } %186
}