; Function Attrs: mustprogress uwtable
define internal fastcc void @_ZN2cvL5qmultERKNS_3MatES2_(ptr dead_on_unwind noalias writable align 8 %0, ptr nocapture noundef nonnull readonly align 8 dereferenceable(96) %1, ptr nocapture noundef nonnull readonly align 8 dereferenceable(96) %2) unnamed_addr #3 personality ptr @__gxx_personality_v0 {
  %4 = alloca %"class.std::__cxx11::basic_string", align 8
  %5 = alloca %"class.std::allocator", align 1
  %6 = alloca %"class.std::__cxx11::basic_string", align 8
  %7 = alloca %"class.std::allocator", align 1
  %8 = alloca %"class.std::__cxx11::basic_string", align 8
  %9 = alloca %"class.std::allocator", align 1
  %10 = load i32, ptr %1, align 8
  %11 = and i32 %10, 4095
  %12 = icmp eq i32 %11, 6
  br i1 %12, label %13, label %17

13:                                               ; preds = %3
  %14 = load i32, ptr %2, align 8
  %15 = and i32 %14, 4095
  %16 = icmp eq i32 %15, 6
  br i1 %16, label %24, label %17

17:                                               ; preds = %13, %3
  call void @_ZNSaIcEC1Ev(ptr noundef nonnull align 1 dereferenceable(1) %5) #18
  invoke void @_ZNSt7__cxx1112basic_stringIcSt11char_traitsIcESaIcEEC1EPKcRKS3_(ptr noundef nonnull align 8 dereferenceable(32) %4, ptr noundef nonnull @.str.24, ptr noundef nonnull align 1 dereferenceable(1) %5)
          to label %18 unwind label %20

18:                                               ; preds = %17
  invoke void @_ZN2cv5errorEiRKNSt7__cxx1112basic_stringIcSt11char_traitsIcESaIcEEEPKcS9_i(i32 noundef -215, ptr noundef nonnull align 8 dereferenceable(32) %4, ptr noundef nonnull @__func__._ZN2cvL5qmultERKNS_3MatES2_, ptr noundef nonnull @.str.1, i32 noundef 198) #19
          to label %19 unwind label %22

19:                                               ; preds = %18
  unreachable

20:                                               ; preds = %17
  %21 = landingpad { ptr, i32 }
          cleanup
  br label %117

22:                                               ; preds = %18
  %23 = landingpad { ptr, i32 }
          cleanup
  call void @_ZNSt7__cxx1112basic_stringIcSt11char_traitsIcESaIcEED1Ev(ptr noundef nonnull align 8 dereferenceable(32) %4) #18
  br label %117

24:                                               ; preds = %13
  %25 = getelementptr inbounds i8, ptr %1, i64 8
  %26 = load i32, ptr %25, align 8
  %27 = icmp eq i32 %26, 4
  %28 = getelementptr inbounds i8, ptr %1, i64 12
  %29 = load i32, ptr %28, align 4
  %30 = icmp eq i32 %29, 1
  %or.cond = select i1 %27, i1 %30, i1 false
  br i1 %or.cond, label %38, label %31

31:                                               ; preds = %24
  call void @_ZNSaIcEC1Ev(ptr noundef nonnull align 1 dereferenceable(1) %7) #18
  invoke void @_ZNSt7__cxx1112basic_stringIcSt11char_traitsIcESaIcEEC1EPKcRKS3_(ptr noundef nonnull align 8 dereferenceable(32) %6, ptr noundef nonnull @.str.25, ptr noundef nonnull align 1 dereferenceable(1) %7)
          to label %32 unwind label %34

32:                                               ; preds = %31
  invoke void @_ZN2cv5errorEiRKNSt7__cxx1112basic_stringIcSt11char_traitsIcESaIcEEEPKcS9_i(i32 noundef -215, ptr noundef nonnull align 8 dereferenceable(32) %6, ptr noundef nonnull @__func__._ZN2cvL5qmultERKNS_3MatES2_, ptr noundef nonnull @.str.1, i32 noundef 199) #19
          to label %33 unwind label %36

33:                                               ; preds = %32
  unreachable

34:                                               ; preds = %31
  %35 = landingpad { ptr, i32 }
          cleanup
  br label %117

36:                                               ; preds = %32
  %37 = landingpad { ptr, i32 }
          cleanup
  call void @_ZNSt7__cxx1112basic_stringIcSt11char_traitsIcESaIcEED1Ev(ptr noundef nonnull align 8 dereferenceable(32) %6) #18
  br label %117

38:                                               ; preds = %24
  %39 = getelementptr inbounds i8, ptr %2, i64 8
  %40 = load i32, ptr %39, align 8
  %41 = icmp eq i32 %40, 4
  %42 = getelementptr inbounds i8, ptr %2, i64 12
  %43 = load i32, ptr %42, align 4
  %44 = icmp eq i32 %43, 1
  %or.cond62 = select i1 %41, i1 %44, i1 false
  br i1 %or.cond62, label %52, label %45

45:                                               ; preds = %38
  call void @_ZNSaIcEC1Ev(ptr noundef nonnull align 1 dereferenceable(1) %9) #18
  invoke void @_ZNSt7__cxx1112basic_stringIcSt11char_traitsIcESaIcEEC1EPKcRKS3_(ptr noundef nonnull align 8 dereferenceable(32) %8, ptr noundef nonnull @.str.26, ptr noundef nonnull align 1 dereferenceable(1) %9)
          to label %46 unwind label %48

46:                                               ; preds = %45
  invoke void @_ZN2cv5errorEiRKNSt7__cxx1112basic_stringIcSt11char_traitsIcESaIcEEEPKcS9_i(i32 noundef -215, ptr noundef nonnull align 8 dereferenceable(32) %8, ptr noundef nonnull @__func__._ZN2cvL5qmultERKNS_3MatES2_, ptr noundef nonnull @.str.1, i32 noundef 200) #19
          to label %47 unwind label %50

47:                                               ; preds = %46
  unreachable

48:                                               ; preds = %45
  %49 = landingpad { ptr, i32 }
          cleanup
  br label %117

50:                                               ; preds = %46
  %51 = landingpad { ptr, i32 }
          cleanup
  call void @_ZNSt7__cxx1112basic_stringIcSt11char_traitsIcESaIcEED1Ev(ptr noundef nonnull align 8 dereferenceable(32) %8) #18
  br label %117

52:                                               ; preds = %38
  %53 = getelementptr inbounds i8, ptr %1, i64 16
  %54 = load ptr, ptr %53, align 8
  %55 = getelementptr inbounds i8, ptr %1, i64 72
  %56 = load ptr, ptr %55, align 8
  %57 = load double, ptr %54, align 8
  %58 = load i64, ptr %56, align 8
  %59 = getelementptr inbounds i8, ptr %54, i64 %58
  %60 = load double, ptr %59, align 8
  %61 = shl i64 %58, 1
  %62 = getelementptr inbounds i8, ptr %54, i64 %61
  %63 = load double, ptr %62, align 8
  %64 = mul i64 %58, 3
  %65 = getelementptr inbounds i8, ptr %54, i64 %64
  %66 = load double, ptr %65, align 8
  %67 = getelementptr inbounds i8, ptr %2, i64 16
  %68 = load ptr, ptr %67, align 8
  %69 = getelementptr inbounds i8, ptr %2, i64 72
  %70 = load ptr, ptr %69, align 8
  %71 = load double, ptr %68, align 8
  %72 = load i64, ptr %70, align 8
  %73 = getelementptr inbounds i8, ptr %68, i64 %72
  %74 = load double, ptr %73, align 8
  %75 = shl i64 %72, 1
  %76 = getelementptr inbounds i8, ptr %68, i64 %75
  %77 = load double, ptr %76, align 8
  %78 = mul i64 %72, 3
  %79 = getelementptr inbounds i8, ptr %68, i64 %78
  %80 = load double, ptr %79, align 8
  tail call void @_ZN2cv3MatC1Eiii(ptr noundef nonnull align 8 dereferenceable(96) %0, i32 noundef 4, i32 noundef 1, i32 noundef 6)
  %81 = fneg double %60
  %82 = fmul double %74, %81
  %83 = tail call double @llvm.fmuladd.f64(double %57, double %71, double %82)
  %84 = fneg double %63
  %85 = tail call double @llvm.fmuladd.f64(double %84, double %77, double %83)
  %86 = fneg double %66
  %87 = tail call double @llvm.fmuladd.f64(double %86, double %80, double %85)
  %88 = getelementptr inbounds i8, ptr %0, i64 16
  %89 = load ptr, ptr %88, align 8
  %90 = getelementptr inbounds i8, ptr %0, i64 72
  store double %87, ptr %89, align 8
  %91 = fmul double %60, %71
  %92 = tail call double @llvm.fmuladd.f64(double %57, double %74, double %91)
  %93 = tail call double @llvm.fmuladd.f64(double %63, double %80, double %92)
  %94 = tail call double @llvm.fmuladd.f64(double %86, double %77, double %93)
  %95 = load ptr, ptr %88, align 8
  %96 = load ptr, ptr %90, align 8
  %97 = load i64, ptr %96, align 8
  %98 = getelementptr inbounds i8, ptr %95, i64 %97
  store double %94, ptr %98, align 8
  %99 = fmul double %80, %81
  %100 = tail call double @llvm.fmuladd.f64(double %57, double %77, double %99)
  %101 = tail call double @llvm.fmuladd.f64(double %63, double %71, double %100)
  %102 = tail call double @llvm.fmuladd.f64(double %66, double %74, double %101)
  %103 = load ptr, ptr %88, align 8
  %104 = load ptr, ptr %90, align 8
  %105 = load i64, ptr %104, align 8
  %106 = shl i64 %105, 1
  %107 = getelementptr inbounds i8, ptr %103, i64 %106
  store double %102, ptr %107, align 8
  %108 = fmul double %60, %77
  %109 = tail call double @llvm.fmuladd.f64(double %57, double %80, double %108)
  %110 = tail call double @llvm.fmuladd.f64(double %84, double %74, double %109)
  %111 = tail call double @llvm.fmuladd.f64(double %66, double %71, double %110)
  %112 = load ptr, ptr %88, align 8
  %113 = load ptr, ptr %90, align 8
  %114 = load i64, ptr %113, align 8
  %115 = mul i64 %114, 3
  %116 = getelementptr inbounds i8, ptr %112, i64 %115
  store double %111, ptr %116, align 8
  ret void

117:                                              ; preds = %48, %50, %34, %36, %20, %22
  %.sink = phi ptr [ %5, %22 ], [ %5, %20 ], [ %7, %36 ], [ %7, %34 ], [ %9, %50 ], [ %9, %48 ]
  %.pn55.pn = phi { ptr, i32 } [ %23, %22 ], [ %21, %20 ], [ %37, %36 ], [ %35, %34 ], [ %51, %50 ], [ %49, %48 ]
  call void @_ZNSaIcED1Ev(ptr noundef nonnull align 1 dereferenceable(1) %.sink) #18
  resume { ptr, i32 } %.pn55.pn
}